target datalayout = "e-m:e-p270:32:32-p271:32:32-p272:64:64-i64:64-i128:128-f80:128-n8:16:32:64-S128"
target triple = "x86_64-pc-linux-gnu"

@hf_ldap_sid = internal global i32 0, align 4
@ldapvalue_string = internal global ptr null, align 8
@.str.904 = private unnamed_addr constant [4 x i8] c"SID\00", align 1

; Function Attrs: null_pointer_is_valid sspstrong uwtable
define internal i32 @dissect_ldap_sid(ptr noundef %0, ptr noundef %1, ptr noundef %2, ptr noundef %3) #0 {
  %5 = alloca ptr, align 8
  %6 = alloca ptr, align 8
  %7 = alloca ptr, align 8
  %8 = alloca ptr, align 8
  %9 = alloca ptr, align 8
  store ptr %0, ptr %5, align 8
  store ptr %1, ptr %6, align 8
  store ptr %2, ptr %7, align 8
  store ptr %3, ptr %8, align 8
  call void @llvm.lifetime.start.p0(i64 8, ptr %9) #16
  %10 = load ptr, ptr %5, align 8
  %11 = load ptr, ptr %7, align 8
  %12 = load i32, ptr @hf_ldap_sid, align 4
  %13 = call i32 @dissect_nt_sid(ptr noundef %10, i32 noundef 0, ptr noundef %11, ptr noundef @.str.904, ptr noundef %9, i32 noundef %12)
  %14 = load ptr, ptr %9, align 8
  store ptr %14, ptr @ldapvalue_string, align 8
  %15 = load ptr, ptr %5, align 8
  %16 = call i32 @tvb_captured_length(ptr noundef %15)
  call void @llvm.lifetime.end.p0(i64 8, ptr %9) #16
  ret i32 %16
}