; Function Attrs: null_pointer_is_valid sspstrong uwtable
define internal i32 @dissect_ldap_sid(ptr noundef %0, ptr readnone captures(none) %1, ptr noundef %2, ptr readnone captures(none) %3) #0 {
  %5 = alloca ptr, align 8
  call void @llvm.lifetime.start.p0(i64 8, ptr nonnull %5) #14
  %6 = load i32, ptr @hf_ldap_sid, align 4
  %7 = call i32 @dissect_nt_sid(ptr noundef %0, i32 noundef 0, ptr noundef %2, ptr noundef nonnull @.str.904, ptr noundef nonnull %5, i32 noundef %6)
  %8 = load ptr, ptr %5, align 8
  store ptr %8, ptr @ldapvalue_string, align 8
  %9 = call i32 @tvb_captured_length(ptr noundef %0)
  call void @llvm.lifetime.end.p0(i64 8, ptr nonnull %5) #14
  ret i32 %9
}